; Function Attrs: mustprogress nofree norecurse nosync nounwind willreturn memory(argmem: readwrite) uwtable
define nonnull ptr @tj3GetErrorStr(ptr noundef %0) local_unnamed_addr #8 {
  %.not = icmp eq ptr %0, null
  br i1 %.not, label %7, label %2

2:                                                ; preds = %1
  %3 = getelementptr inbounds i8, ptr %0, i64 1740
  %4 = load i32, ptr %3, align 4
  %.not7 = icmp eq i32 %4, 0
  br i1 %.not7, label %7, label %5

5:                                                ; preds = %2
  store i32 0, ptr %3, align 4
  %6 = getelementptr inbounds i8, ptr %0, i64 1540
  br label %9

7:                                                ; preds = %2, %1
  %8 = tail call align 16 ptr @llvm.threadlocal.address.p0(ptr align 16 @errStr)
  br label %9

9:                                                ; preds = %7, %5
  %.0 = phi ptr [ %6, %5 ], [ %8, %7 ]
  ret ptr %.0
}